; ModuleID = '58/168.c'
source_filename = "58/168.c"
target datalayout = "e-m:e-p270:32:32-p271:32:32-p272:64:64-i64:64-f80:128-n8:16:32:64-S128"
target triple = "x86_64-pc-linux-gnu"

@.str = private unnamed_addr constant [3 x i8] c"%d\00", align 1
@.str.1 = private unnamed_addr constant [3 x i8] c"1\0A\00", align 1
@.str.2 = private unnamed_addr constant [3 x i8] c"0\0A\00", align 1

; Function Attrs: noinline nounwind uwtable
define dso_local i32 @main() #0 {
  %1 = alloca i32, align 4
  %2 = alloca i32, align 4
  %3 = alloca i32, align 4
  %4 = alloca i32, align 4
  %5 = alloca [1000 x i8], align 16
  %6 = alloca i8*, align 8
  %7 = alloca i64, align 8
  %8 = alloca i32, align 4
  store i32 0, i32* %1, align 4
  store i32 0, i32* %3, align 4
  %9 = call i32 (i8*, ...) @__isoc99_scanf(i8* getelementptr inbounds ([3 x i8], [3 x i8]* @.str, i64 0, i64 0), i32* %2)
  %10 = getelementptr inbounds [1000 x i8], [1000 x i8]* %5, i64 0, i64 0
  %11 = call i32 (i8*, ...) bitcast (i32 (...)* @gets to i32 (i8*, ...)*)(i8* %10)
  %12 = load i32, i32* %2, align 4
  %13 = zext i32 %12 to i64
  %14 = call i8* @llvm.stacksave()
  store i8* %14, i8** %6, align 8
  %15 = alloca [81 x i8], i64 %13, align 16
  store i64 %13, i64* %7, align 8
  store i32 0, i32* %3, align 4
  br label %16

16:                                               ; preds = %141, %0
  %17 = load i32, i32* %3, align 4
  %18 = load i32, i32* %2, align 4
  %19 = icmp slt i32 %17, %18
  br i1 %19, label %20, label %144

20:                                               ; preds = %16
  %21 = load i32, i32* %3, align 4
  %22 = sext i32 %21 to i64
  %23 = getelementptr inbounds [81 x i8], [81 x i8]* %15, i64 %22
  %24 = getelementptr inbounds [81 x i8], [81 x i8]* %23, i64 0, i64 0
  %25 = call i32 (i8*, ...) bitcast (i32 (...)* @gets to i32 (i8*, ...)*)(i8* %24)
  store i32 0, i32* %4, align 4
  store i32 0, i32* %8, align 4
  br label %26

26:                                               ; preds = %130, %20
  %27 = load i32, i32* %8, align 4
  %28 = sext i32 %27 to i64
  %29 = load i32, i32* %3, align 4
  %30 = sext i32 %29 to i64
  %31 = getelementptr inbounds [81 x i8], [81 x i8]* %15, i64 %30
  %32 = getelementptr inbounds [81 x i8], [81 x i8]* %31, i64 0, i64 0
  %33 = call i64 @strlen(i8* %32) #4
  %34 = icmp ult i64 %28, %33
  br i1 %34, label %35, label %133

35:                                               ; preds = %26
  %36 = load i32, i32* %3, align 4
  %37 = sext i32 %36 to i64
  %38 = getelementptr inbounds [81 x i8], [81 x i8]* %15, i64 %37
  %39 = load i32, i32* %8, align 4
  %40 = sext i32 %39 to i64
  %41 = getelementptr inbounds [81 x i8], [81 x i8]* %38, i64 0, i64 %40
  %42 = load i8, i8* %41, align 1
  %43 = sext i8 %42 to i32
  %44 = icmp sge i32 %43, 48
  br i1 %44, label %45, label %55

45:                                               ; preds = %35
  %46 = load i32, i32* %3, align 4
  %47 = sext i32 %46 to i64
  %48 = getelementptr inbounds [81 x i8], [81 x i8]* %15, i64 %47
  %49 = load i32, i32* %8, align 4
  %50 = sext i32 %49 to i64
  %51 = getelementptr inbounds [81 x i8], [81 x i8]* %48, i64 0, i64 %50
  %52 = load i8, i8* %51, align 1
  %53 = sext i8 %52 to i32
  %54 = icmp sle i32 %53, 57
  br i1 %54, label %107, label %55

55:                                               ; preds = %45, %35
  %56 = load i32, i32* %3, align 4
  %57 = sext i32 %56 to i64
  %58 = getelementptr inbounds [81 x i8], [81 x i8]* %15, i64 %57
  %59 = load i32, i32* %8, align 4
  %60 = sext i32 %59 to i64
  %61 = getelementptr inbounds [81 x i8], [81 x i8]* %58, i64 0, i64 %60
  %62 = load i8, i8* %61, align 1
  %63 = sext i8 %62 to i32
  %64 = icmp sge i32 %63, 97
  br i1 %64, label %65, label %75

65:                                               ; preds = %55
  %66 = load i32, i32* %3, align 4
  %67 = sext i32 %66 to i64
  %68 = getelementptr inbounds [81 x i8], [81 x i8]* %15, i64 %67
  %69 = load i32, i32* %8, align 4
  %70 = sext i32 %69 to i64
  %71 = getelementptr inbounds [81 x i8], [81 x i8]* %68, i64 0, i64 %70
  %72 = load i8, i8* %71, align 1
  %73 = sext i8 %72 to i32
  %74 = icmp sle i32 %73, 122
  br i1 %74, label %107, label %75

75:                                               ; preds = %65, %55
  %76 = load i32, i32* %3, align 4
  %77 = sext i32 %76 to i64
  %78 = getelementptr inbounds [81 x i8], [81 x i8]* %15, i64 %77
  %79 = load i32, i32* %8, align 4
  %80 = sext i32 %79 to i64
  %81 = getelementptr inbounds [81 x i8], [81 x i8]* %78, i64 0, i64 %80
  %82 = load i8, i8* %81, align 1
  %83 = sext i8 %82 to i32
  %84 = icmp sge i32 %83, 65
  br i1 %84, label %85, label %95

85:                                               ; preds = %75
  %86 = load i32, i32* %3, align 4
  %87 = sext i32 %86 to i64
  %88 = getelementptr inbounds [81 x i8], [81 x i8]* %15, i64 %87
  %89 = load i32, i32* %8, align 4
  %90 = sext i32 %89 to i64
  %91 = getelementptr inbounds [81 x i8], [81 x i8]* %88, i64 0, i64 %90
  %92 = load i8, i8* %91, align 1
  %93 = sext i8 %92 to i32
  %94 = icmp sle i32 %93, 90
  br i1 %94, label %107, label %95

95:                                               ; preds = %85, %75
  %96 = load i32, i32* %3, align 4
  %97 = sext i32 %96 to i64
  %98 = getelementptr inbounds [81 x i8], [81 x i8]* %15, i64 %97
  %99 = load i32, i32* %8, align 4
  %100 = sext i32 %99 to i64
  %101 = getelementptr inbounds [81 x i8], [81 x i8]* %98, i64 0, i64 %100
  %102 = load i8, i8* %101, align 1
  %103 = sext i8 %102 to i32
  %104 = icmp eq i32 %103, 95
  br i1 %104, label %107, label %105

105:                                              ; preds = %95
  %106 = load i32, i32* %4, align 4
  store i32 %106, i32* %4, align 4
  store i32 0, i32* %4, align 4
  br label %133

107:                                              ; preds = %95, %85, %65, %45
  %108 = load i32, i32* %3, align 4
  %109 = sext i32 %108 to i64
  %110 = getelementptr inbounds [81 x i8], [81 x i8]* %15, i64 %109
  %111 = getelementptr inbounds [81 x i8], [81 x i8]* %110, i64 0, i64 0
  %112 = load i8, i8* %111, align 1
  %113 = sext i8 %112 to i32
  %114 = icmp sge i32 %113, 48
  br i1 %114, label %115, label %125

115:                                              ; preds = %107
  %116 = load i32, i32* %3, align 4
  %117 = sext i32 %116 to i64
  %118 = getelementptr inbounds [81 x i8], [81 x i8]* %15, i64 %117
  %119 = getelementptr inbounds [81 x i8], [81 x i8]* %118, i64 0, i64 0
  %120 = load i8, i8* %119, align 1
  %121 = sext i8 %120 to i32
  %122 = icmp sle i32 %121, 57
  br i1 %122, label %123, label %125

123:                                              ; preds = %115
  %124 = load i32, i32* %4, align 4
  store i32 %124, i32* %4, align 4
  store i32 0, i32* %4, align 4
  br label %133

125:                                              ; preds = %115, %107
  %126 = load i32, i32* %4, align 4
  %127 = add nsw i32 %126, 1
  store i32 %127, i32* %4, align 4
  br label %128

128:                                              ; preds = %125
  br label %129

129:                                              ; preds = %128
  br label %130

130:                                              ; preds = %129
  %131 = load i32, i32* %8, align 4
  %132 = add nsw i32 %131, 1
  store i32 %132, i32* %8, align 4
  br label %26

133:                                              ; preds = %123, %105, %26
  %134 = load i32, i32* %4, align 4
  %135 = icmp ne i32 %134, 0
  br i1 %135, label %136, label %138

136:                                              ; preds = %133
  %137 = call i32 (i8*, ...) @printf(i8* getelementptr inbounds ([3 x i8], [3 x i8]* @.str.1, i64 0, i64 0))
  br label %140

138:                                              ; preds = %133
  %139 = call i32 (i8*, ...) @printf(i8* getelementptr inbounds ([3 x i8], [3 x i8]* @.str.2, i64 0, i64 0))
  br label %140

140:                                              ; preds = %138, %136
  br label %141

141:                                              ; preds = %140
  %142 = load i32, i32* %3, align 4
  %143 = add nsw i32 %142, 1
  store i32 %143, i32* %3, align 4
  br label %16

144:                                              ; preds = %16
  %145 = load i8*, i8** %6, align 8
  call void @llvm.stackrestore(i8* %145)
  %146 = load i32, i32* %1, align 4
  ret i32 %146
}

declare dso_local i32 @__isoc99_scanf(i8*, ...) #1

declare dso_local i32 @gets(...) #1

; Function Attrs: nounwind
declare i8* @llvm.stacksave() #2

; Function Attrs: nounwind readonly
declare dso_local i64 @strlen(i8*) #3

declare dso_local i32 @printf(i8*, ...) #1

; Function Attrs: nounwind
declare void @llvm.stackrestore(i8*) #2


!llvm.module.flags = !{!0}
!llvm.ident = !{!1}

!0 = !{i32 1, !"wchar_size", i32 4}
!1 = !{!"clang version 10.0.0-4ubuntu1 "}
